target datalayout = "e-m:e-p270:32:32-p271:32:32-p272:64:64-i64:64-i128:128-f80:128-n8:16:32:64-S128"
target triple = "x86_64-unknown-linux-gnu"

%struct.VMStateDescription = type { ptr, i8, i8, i32, i32, i32, ptr, ptr, ptr, ptr, ptr, ptr, ptr, ptr }
%struct.PropertyInfo = type { ptr, ptr, ptr, i8, ptr, ptr, ptr, ptr, ptr, ptr }
%struct.PCIDeviceClass = type { %struct.DeviceClass, ptr, ptr, ptr, ptr, i16, i16, i8, i16, i16, i16, ptr }
%struct.DeviceClass = type { %struct.ObjectClass, [1 x i64], ptr, ptr, ptr, i8, i8, ptr, ptr, ptr, ptr, ptr }
%struct.ObjectClass = type { ptr, ptr, [4 x ptr], [4 x ptr], ptr, ptr }
%struct.ResettableClass = type { %struct.InterfaceClass, %struct.ResettablePhases, ptr, ptr, ptr }
%struct.InterfaceClass = type { %struct.ObjectClass, ptr, ptr }
%struct.ResettablePhases = type { ptr, ptr, ptr }

@.str.1 = private unnamed_addr constant [11 x i8] c"pci-device\00", align 1
@.str.6 = private unnamed_addr constant [7 x i8] c"device\00", align 1
@.str.7 = private unnamed_addr constant [101 x i8] c"/home/dtcxzyw/WorkSpace/Projects/compilers/llvm-opt-benchmark/bench/qemu/qemu/include/hw/qdev-core.h\00", align 1
@.str.8 = private unnamed_addr constant [15 x i8] c"efi-e1000e.rom\00", align 1
@.str.9 = private unnamed_addr constant [28 x i8] c"Intel 82574L GbE Controller\00", align 1
@e1000e_vmstate = internal constant %struct.VMStateDescription { ptr @.str, i8 0, i8 0, i32 1, i32 1, i32 0, ptr null, ptr @e1000e_post_load, ptr @e1000e_pre_save, ptr null, ptr null, ptr null, ptr @.compoundliteral.81, ptr null }, align 8
@e1000e_prop_disable_vnet = internal global %struct.PropertyInfo zeroinitializer, align 8
@qdev_prop_uint8 = external constant %struct.PropertyInfo, align 8
@.str.10 = private unnamed_addr constant [65 x i8] c"Do not use virtio headers, perform SW offloads emulation instead\00", align 1
@e1000e_prop_subsys_ven = internal global %struct.PropertyInfo zeroinitializer, align 8
@qdev_prop_uint16 = external constant %struct.PropertyInfo, align 8
@.str.11 = private unnamed_addr constant [31 x i8] c"PCI device Subsystem Vendor ID\00", align 1
@e1000e_prop_subsys = internal global %struct.PropertyInfo zeroinitializer, align 8
@.str.12 = private unnamed_addr constant [24 x i8] c"PCI device Subsystem ID\00", align 1
@__func__.DEVICE_CLASS = private unnamed_addr constant [13 x i8] c"DEVICE_CLASS\00", align 1
@.str.13 = private unnamed_addr constant [11 x i8] c"resettable\00", align 1
@.str.14 = private unnamed_addr constant [102 x i8] c"/home/dtcxzyw/WorkSpace/Projects/compilers/llvm-opt-benchmark/bench/qemu/qemu/include/hw/resettable.h\00", align 1
@__func__.RESETTABLE_CLASS = private unnamed_addr constant [17 x i8] c"RESETTABLE_CLASS\00", align 1
@.str.15 = private unnamed_addr constant [106 x i8] c"/home/dtcxzyw/WorkSpace/Projects/compilers/llvm-opt-benchmark/bench/qemu/qemu/include/hw/pci/pci_device.h\00", align 1
@__func__.PCI_DEVICE_CLASS = private unnamed_addr constant [17 x i8] c"PCI_DEVICE_CLASS\00", align 1

; Function Attrs: nounwind sspstrong uwtable
define internal void @set_bit(i64 noundef %nr, ptr noundef %addr) #0 {
entry:
  %nr.addr = alloca i64, align 8
  %addr.addr = alloca ptr, align 8
  %mask = alloca i64, align 8
  %p = alloca ptr, align 8
  store i64 %nr, ptr %nr.addr, align 8
  store ptr %addr, ptr %addr.addr, align 8
  %0 = load i64, ptr %nr.addr, align 8
  %rem = urem i64 %0, 64
  %shl = shl i64 1, %rem
  store i64 %shl, ptr %mask, align 8
  %1 = load ptr, ptr %addr.addr, align 8
  %2 = load i64, ptr %nr.addr, align 8
  %div = udiv i64 %2, 64
  %add.ptr = getelementptr i64, ptr %1, i64 %div
  store ptr %add.ptr, ptr %p, align 8
  %3 = load i64, ptr %mask, align 8
  %4 = load ptr, ptr %p, align 8
  %5 = load i64, ptr %4, align 8
  %or = or i64 %5, %3
  store i64 %or, ptr %4, align 8
  ret void
}

; Function Attrs: nounwind sspstrong uwtable
define internal ptr @PCI_DEVICE_CLASS(ptr noundef %klass) #0 {
entry:
  %klass.addr = alloca ptr, align 8
  store ptr %klass, ptr %klass.addr, align 8
  %0 = load ptr, ptr %klass.addr, align 8
  %call = call ptr @object_class_dynamic_cast_assert(ptr noundef %0, ptr noundef @.str.1, ptr noundef @.str.15, i32 noundef 10, ptr noundef @__func__.PCI_DEVICE_CLASS)
  ret ptr %call
}

; Function Attrs: nounwind sspstrong uwtable
define internal ptr @RESETTABLE_CLASS(ptr noundef %klass) #0 {
entry:
  %klass.addr = alloca ptr, align 8
  store ptr %klass, ptr %klass.addr, align 8
  %0 = load ptr, ptr %klass.addr, align 8
  %call = call ptr @object_class_dynamic_cast_assert(ptr noundef %0, ptr noundef @.str.13, ptr noundef @.str.14, i32 noundef 22, ptr noundef @__func__.RESETTABLE_CLASS)
  ret ptr %call
}

; Function Attrs: nounwind sspstrong uwtable
define internal ptr @DEVICE_CLASS(ptr noundef %klass) #0 {
entry:
  %klass.addr = alloca ptr, align 8
  store ptr %klass, ptr %klass.addr, align 8
  %0 = load ptr, ptr %klass.addr, align 8
  %call = call ptr @object_class_dynamic_cast_assert(ptr noundef %0, ptr noundef @.str.6, ptr noundef @.str.7, i32 noundef 77, ptr noundef @__func__.DEVICE_CLASS)
  ret ptr %call
}

; Function Attrs: nounwind sspstrong uwtable
define internal void @e1000e_class_init(ptr noundef %class, ptr noundef %data) #0 {
entry:
  %class.addr = alloca ptr, align 8
  %data.addr = alloca ptr, align 8
  %dc = alloca ptr, align 8
  %rc = alloca ptr, align 8
  %c = alloca ptr, align 8
  store ptr %class, ptr %class.addr, align 8
  store ptr %data, ptr %data.addr, align 8
  %0 = load ptr, ptr %class.addr, align 8
  %call = call ptr @DEVICE_CLASS(ptr noundef %0)
  store ptr %call, ptr %dc, align 8
  %1 = load ptr, ptr %class.addr, align 8
  %call1 = call ptr @RESETTABLE_CLASS(ptr noundef %1)
  store ptr %call1, ptr %rc, align 8
  %2 = load ptr, ptr %class.addr, align 8
  %call2 = call ptr @PCI_DEVICE_CLASS(ptr noundef %2)
  store ptr %call2, ptr %c, align 8
  %3 = load ptr, ptr %c, align 8
  %realize = getelementptr inbounds %struct.PCIDeviceClass, ptr %3, i32 0, i32 1
  store ptr @e1000e_pci_realize, ptr %realize, align 8
  %4 = load ptr, ptr %c, align 8
  %exit = getelementptr inbounds %struct.PCIDeviceClass, ptr %4, i32 0, i32 2
  store ptr @e1000e_pci_uninit, ptr %exit, align 8
  %5 = load ptr, ptr %c, align 8
  %vendor_id = getelementptr inbounds %struct.PCIDeviceClass, ptr %5, i32 0, i32 5
  store i16 -32634, ptr %vendor_id, align 8
  %6 = load ptr, ptr %c, align 8
  %device_id = getelementptr inbounds %struct.PCIDeviceClass, ptr %6, i32 0, i32 6
  store i16 4307, ptr %device_id, align 2
  %7 = load ptr, ptr %c, align 8
  %revision = getelementptr inbounds %struct.PCIDeviceClass, ptr %7, i32 0, i32 7
  store i8 0, ptr %revision, align 4
  %8 = load ptr, ptr %c, align 8
  %romfile = getelementptr inbounds %struct.PCIDeviceClass, ptr %8, i32 0, i32 11
  store ptr @.str.8, ptr %romfile, align 8
  %9 = load ptr, ptr %c, align 8
  %class_id = getelementptr inbounds %struct.PCIDeviceClass, ptr %9, i32 0, i32 8
  store i16 512, ptr %class_id, align 2
  %10 = load ptr, ptr %rc, align 8
  %phases = getelementptr inbounds %struct.ResettableClass, ptr %10, i32 0, i32 1
  %hold = getelementptr inbounds %struct.ResettablePhases, ptr %phases, i32 0, i32 1
  store ptr @e1000e_qdev_reset_hold, ptr %hold, align 8
  %11 = load ptr, ptr %dc, align 8
  %desc = getelementptr inbounds %struct.DeviceClass, ptr %11, i32 0, i32 3
  store ptr @.str.9, ptr %desc, align 8
  %12 = load ptr, ptr %dc, align 8
  %vmsd = getelementptr inbounds %struct.DeviceClass, ptr %12, i32 0, i32 10
  store ptr @e1000e_vmstate, ptr %vmsd, align 8
  call void @llvm.memcpy.p0.p0.i64(ptr align 8 @e1000e_prop_disable_vnet, ptr align 8 @qdev_prop_uint8, i64 80, i1 false)
  %13 = getelementptr inbounds %struct.PropertyInfo, ptr @e1000e_prop_disable_vnet, i32 0, i32 1
  store ptr @.str.10, ptr %13, align 8
  call void @llvm.memcpy.p0.p0.i64(ptr align 8 @e1000e_prop_subsys_ven, ptr align 8 @qdev_prop_uint16, i64 80, i1 false)
  %14 = getelementptr inbounds %struct.PropertyInfo, ptr @e1000e_prop_subsys_ven, i32 0, i32 1
  store ptr @.str.11, ptr %14, align 8
  call void @llvm.memcpy.p0.p0.i64(ptr align 8 @e1000e_prop_subsys, ptr align 8 @qdev_prop_uint16, i64 80, i1 false)
  %15 = getelementptr inbounds %struct.PropertyInfo, ptr @e1000e_prop_subsys, i32 0, i32 1
  store ptr @.str.12, ptr %15, align 8
  %16 = load ptr, ptr %dc, align 8
  call void @device_class_set_props(ptr noundef %16, ptr noundef @e1000e_properties)
  %17 = load ptr, ptr %dc, align 8
  %categories = getelementptr inbounds %struct.DeviceClass, ptr %17, i32 0, i32 1
  %arraydecay = getelementptr inbounds [1 x i64], ptr %categories, i64 0, i64 0
  call void @set_bit(i64 noundef 3, ptr noundef %arraydecay)
  ret void
}