; Function Attrs: nounwind sspstrong uwtable
define internal void @e1000e_class_init(ptr noundef %class, ptr readnone captures(none) %data) #0 {
entry:
  %call.i = tail call ptr @object_class_dynamic_cast_assert(ptr noundef %class, ptr noundef nonnull @.str.6, ptr noundef nonnull @.str.7, i32 noundef 77, ptr noundef nonnull @__func__.DEVICE_CLASS) #9
  %call.i12 = tail call ptr @object_class_dynamic_cast_assert(ptr noundef %class, ptr noundef nonnull @.str.13, ptr noundef nonnull @.str.14, i32 noundef 22, ptr noundef nonnull @__func__.RESETTABLE_CLASS) #9
  %call.i13 = tail call ptr @object_class_dynamic_cast_assert(ptr noundef %class, ptr noundef nonnull @.str.1, ptr noundef nonnull @.str.15, i32 noundef 10, ptr noundef nonnull @__func__.PCI_DEVICE_CLASS) #9
  %realize = getelementptr inbounds nuw i8, ptr %call.i13, i64 176
  store ptr @e1000e_pci_realize, ptr %realize, align 8
  %exit = getelementptr inbounds nuw i8, ptr %call.i13, i64 184
  store ptr @e1000e_pci_uninit, ptr %exit, align 8
  %vendor_id = getelementptr inbounds nuw i8, ptr %call.i13, i64 208
  store i16 -32634, ptr %vendor_id, align 8
  %device_id = getelementptr inbounds nuw i8, ptr %call.i13, i64 210
  store i16 4307, ptr %device_id, align 2
  %revision = getelementptr inbounds nuw i8, ptr %call.i13, i64 212
  store i8 0, ptr %revision, align 4
  %romfile = getelementptr inbounds nuw i8, ptr %call.i13, i64 224
  store ptr @.str.8, ptr %romfile, align 8
  %class_id = getelementptr inbounds nuw i8, ptr %call.i13, i64 214
  store i16 512, ptr %class_id, align 2
  %hold = getelementptr inbounds nuw i8, ptr %call.i12, i64 120
  store ptr @e1000e_qdev_reset_hold, ptr %hold, align 8
  %desc = getelementptr inbounds nuw i8, ptr %call.i, i64 112
  store ptr @.str.9, ptr %desc, align 8
  %vmsd = getelementptr inbounds nuw i8, ptr %call.i, i64 160
  store ptr @e1000e_vmstate, ptr %vmsd, align 8
  tail call void @llvm.memcpy.p0.p0.i64(ptr noundef nonnull align 8 dereferenceable(80) @e1000e_prop_disable_vnet, ptr noundef nonnull align 8 dereferenceable(80) @qdev_prop_uint8, i64 80, i1 false)
  store ptr @.str.10, ptr getelementptr inbounds nuw (i8, ptr @e1000e_prop_disable_vnet, i64 8), align 8
  tail call void @llvm.memcpy.p0.p0.i64(ptr noundef nonnull align 8 dereferenceable(80) @e1000e_prop_subsys_ven, ptr noundef nonnull align 8 dereferenceable(80) @qdev_prop_uint16, i64 80, i1 false)
  store ptr @.str.11, ptr getelementptr inbounds nuw (i8, ptr @e1000e_prop_subsys_ven, i64 8), align 8
  tail call void @llvm.memcpy.p0.p0.i64(ptr noundef nonnull align 8 dereferenceable(80) @e1000e_prop_subsys, ptr noundef nonnull align 8 dereferenceable(80) @qdev_prop_uint16, i64 80, i1 false)
  store ptr @.str.12, ptr getelementptr inbounds nuw (i8, ptr @e1000e_prop_subsys, i64 8), align 8
  tail call void @device_class_set_props(ptr noundef %call.i, ptr noundef nonnull @e1000e_properties) #9
  %categories = getelementptr inbounds nuw i8, ptr %call.i, i64 96
  %0 = load i64, ptr %categories, align 8
  %or.i = or i64 %0, 8
  store i64 %or.i, ptr %categories, align 8
  ret void
}